#include <math.h>
#include <stdio.h>
#include <stdlib.h>
#include <string.h>

void main()
{
	int i,n,m,*a;
	scanf("%d%d",&n,&m);
	a=(int*)calloc(n+m,sizeof(int));
	a+=m;
	for(i=0;i<n;i++)scanf("%d",a++);
	for(i=0;i<m;i++)a--,*(a-n)=*a;a-=n;n--;
	for(i=0;i<n;i++)printf("%d ",a[i]);
	printf("%d",a[n]);
}

