; ModuleID = '52/2201.c'
source_filename = "52/2201.c"
target datalayout = "e-m:e-p270:32:32-p271:32:32-p272:64:64-i64:64-f80:128-n8:16:32:64-S128"
target triple = "x86_64-pc-linux-gnu"

@.str = private unnamed_addr constant [5 x i8] c"%d%d\00", align 1
@.str.1 = private unnamed_addr constant [3 x i8] c"%d\00", align 1
@.str.2 = private unnamed_addr constant [4 x i8] c"%d \00", align 1

; Function Attrs: noinline nounwind uwtable
define dso_local void @main() #0 {
  %1 = alloca i32, align 4
  %2 = alloca i32, align 4
  %3 = alloca i32, align 4
  %4 = alloca i32*, align 8
  %5 = call i32 (i8*, ...) @__isoc99_scanf(i8* getelementptr inbounds ([5 x i8], [5 x i8]* @.str, i64 0, i64 0), i32* %2, i32* %3)
  %6 = load i32, i32* %2, align 4
  %7 = load i32, i32* %3, align 4
  %8 = add nsw i32 %6, %7
  %9 = sext i32 %8 to i64
  %10 = call noalias i8* @calloc(i64 %9, i64 4) #3
  %11 = bitcast i8* %10 to i32*
  store i32* %11, i32** %4, align 8
  %12 = load i32, i32* %3, align 4
  %13 = load i32*, i32** %4, align 8
  %14 = sext i32 %12 to i64
  %15 = getelementptr inbounds i32, i32* %13, i64 %14
  store i32* %15, i32** %4, align 8
  store i32 0, i32* %1, align 4
  br label %16

16:                                               ; preds = %24, %0
  %17 = load i32, i32* %1, align 4
  %18 = load i32, i32* %2, align 4
  %19 = icmp slt i32 %17, %18
  br i1 %19, label %20, label %27

20:                                               ; preds = %16
  %21 = load i32*, i32** %4, align 8
  %22 = getelementptr inbounds i32, i32* %21, i32 1
  store i32* %22, i32** %4, align 8
  %23 = call i32 (i8*, ...) @__isoc99_scanf(i8* getelementptr inbounds ([3 x i8], [3 x i8]* @.str.1, i64 0, i64 0), i32* %21)
  br label %24

24:                                               ; preds = %20
  %25 = load i32, i32* %1, align 4
  %26 = add nsw i32 %25, 1
  store i32 %26, i32* %1, align 4
  br label %16

27:                                               ; preds = %16
  store i32 0, i32* %1, align 4
  br label %28

28:                                               ; preds = %42, %27
  %29 = load i32, i32* %1, align 4
  %30 = load i32, i32* %3, align 4
  %31 = icmp slt i32 %29, %30
  br i1 %31, label %32, label %45

32:                                               ; preds = %28
  %33 = load i32*, i32** %4, align 8
  %34 = getelementptr inbounds i32, i32* %33, i32 -1
  store i32* %34, i32** %4, align 8
  %35 = load i32*, i32** %4, align 8
  %36 = load i32, i32* %35, align 4
  %37 = load i32*, i32** %4, align 8
  %38 = load i32, i32* %2, align 4
  %39 = sext i32 %38 to i64
  %40 = sub i64 0, %39
  %41 = getelementptr inbounds i32, i32* %37, i64 %40
  store i32 %36, i32* %41, align 4
  br label %42

42:                                               ; preds = %32
  %43 = load i32, i32* %1, align 4
  %44 = add nsw i32 %43, 1
  store i32 %44, i32* %1, align 4
  br label %28

45:                                               ; preds = %28
  %46 = load i32, i32* %2, align 4
  %47 = load i32*, i32** %4, align 8
  %48 = sext i32 %46 to i64
  %49 = sub i64 0, %48
  %50 = getelementptr inbounds i32, i32* %47, i64 %49
  store i32* %50, i32** %4, align 8
  %51 = load i32, i32* %2, align 4
  %52 = add nsw i32 %51, -1
  store i32 %52, i32* %2, align 4
  store i32 0, i32* %1, align 4
  br label %53

53:                                               ; preds = %64, %45
  %54 = load i32, i32* %1, align 4
  %55 = load i32, i32* %2, align 4
  %56 = icmp slt i32 %54, %55
  br i1 %56, label %57, label %67

57:                                               ; preds = %53
  %58 = load i32*, i32** %4, align 8
  %59 = load i32, i32* %1, align 4
  %60 = sext i32 %59 to i64
  %61 = getelementptr inbounds i32, i32* %58, i64 %60
  %62 = load i32, i32* %61, align 4
  %63 = call i32 (i8*, ...) @printf(i8* getelementptr inbounds ([4 x i8], [4 x i8]* @.str.2, i64 0, i64 0), i32 %62)
  br label %64

64:                                               ; preds = %57
  %65 = load i32, i32* %1, align 4
  %66 = add nsw i32 %65, 1
  store i32 %66, i32* %1, align 4
  br label %53

67:                                               ; preds = %53
  %68 = load i32*, i32** %4, align 8
  %69 = load i32, i32* %2, align 4
  %70 = sext i32 %69 to i64
  %71 = getelementptr inbounds i32, i32* %68, i64 %70
  %72 = load i32, i32* %71, align 4
  %73 = call i32 (i8*, ...) @printf(i8* getelementptr inbounds ([3 x i8], [3 x i8]* @.str.1, i64 0, i64 0), i32 %72)
  ret void
}

declare dso_local i32 @__isoc99_scanf(i8*, ...) #1

; Function Attrs: nounwind
declare dso_local noalias i8* @calloc(i64, i64) #2

declare dso_local i32 @printf(i8*, ...) #1


!llvm.module.flags = !{!0}
!llvm.ident = !{!1}

!0 = !{i32 1, !"wchar_size", i32 4}
!1 = !{!"clang version 10.0.0-4ubuntu1 "}
