; ModuleID = 'source-C-CXX/51/2201.c'
source_filename = "source-C-CXX/51/2201.c"
target datalayout = "e-m:e-p270:32:32-p271:32:32-p272:64:64-i64:64-f80:128-n8:16:32:64-S128"
target triple = "x86_64-pc-linux-gnu"

@.str = private unnamed_addr constant [5 x i8] c"%d%d\00", align 1
@.str.1 = private unnamed_addr constant [3 x i8] c"%d\00", align 1
@.str.2 = private unnamed_addr constant [4 x i8] c"%d \00", align 1

; Function Attrs: nofree nounwind sspstrong uwtable
define dso_local void @main() local_unnamed_addr #0 {
  %1 = alloca i32, align 4
  %2 = alloca i32, align 4
  %3 = bitcast i32* %1 to i8*
  call void @llvm.lifetime.start.p0i8(i64 4, i8* nonnull %3) #4
  %4 = bitcast i32* %2 to i8*
  call void @llvm.lifetime.start.p0i8(i64 4, i8* nonnull %4) #4
  %5 = call i32 (i8*, ...) @__isoc99_scanf(i8* getelementptr inbounds ([5 x i8], [5 x i8]* @.str, i64 0, i64 0), i32* nonnull %1, i32* nonnull %2)
  %6 = load i32, i32* %1, align 4, !tbaa !5
  %7 = load i32, i32* %2, align 4, !tbaa !5
  %8 = add nsw i32 %7, %6
  %9 = sext i32 %8 to i64
  %10 = call noalias align 16 i8* @calloc(i64 %9, i64 4) #4
  %11 = bitcast i8* %10 to i32*
  %12 = sext i32 %7 to i64
  %13 = getelementptr inbounds i32, i32* %11, i64 %12
  %14 = icmp sgt i32 %6, 0
  br i1 %14, label %24, label %17

15:                                               ; preds = %24
  %16 = load i32, i32* %2, align 4, !tbaa !5
  br label %17

17:                                               ; preds = %15, %0
  %18 = phi i32 [ %7, %0 ], [ %16, %15 ]
  %19 = phi i32* [ %13, %0 ], [ %27, %15 ]
  %20 = phi i32 [ %6, %0 ], [ %30, %15 ]
  %21 = sext i32 %20 to i64
  %22 = sub nsw i64 0, %21
  %23 = icmp sgt i32 %18, 0
  br i1 %23, label %32, label %41

24:                                               ; preds = %0, %24
  %25 = phi i32* [ %27, %24 ], [ %13, %0 ]
  %26 = phi i32 [ %29, %24 ], [ 0, %0 ]
  %27 = getelementptr inbounds i32, i32* %25, i64 1
  %28 = call i32 (i8*, ...) @__isoc99_scanf(i8* getelementptr inbounds ([3 x i8], [3 x i8]* @.str.1, i64 0, i64 0), i32* %25)
  %29 = add nuw nsw i32 %26, 1
  %30 = load i32, i32* %1, align 4, !tbaa !5
  %31 = icmp slt i32 %29, %30
  br i1 %31, label %24, label %15, !llvm.loop !9

32:                                               ; preds = %17, %32
  %33 = phi i32* [ %35, %32 ], [ %19, %17 ]
  %34 = phi i32 [ %38, %32 ], [ 0, %17 ]
  %35 = getelementptr inbounds i32, i32* %33, i64 -1
  %36 = load i32, i32* %35, align 4, !tbaa !5
  %37 = getelementptr inbounds i32, i32* %35, i64 %22
  store i32 %36, i32* %37, align 4, !tbaa !5
  %38 = add nuw nsw i32 %34, 1
  %39 = load i32, i32* %2, align 4, !tbaa !5
  %40 = icmp slt i32 %38, %39
  br i1 %40, label %32, label %41, !llvm.loop !11

41:                                               ; preds = %32, %17
  %42 = phi i32* [ %19, %17 ], [ %35, %32 ]
  %43 = getelementptr inbounds i32, i32* %42, i64 %22
  %44 = add nsw i32 %20, -1
  store i32 %44, i32* %1, align 4, !tbaa !5
  %45 = icmp sgt i32 %20, 1
  br i1 %45, label %46, label %55

46:                                               ; preds = %41, %46
  %47 = phi i64 [ %51, %46 ], [ 0, %41 ]
  %48 = getelementptr inbounds i32, i32* %43, i64 %47
  %49 = load i32, i32* %48, align 4, !tbaa !5
  %50 = call i32 (i8*, ...) @printf(i8* nonnull dereferenceable(1) getelementptr inbounds ([4 x i8], [4 x i8]* @.str.2, i64 0, i64 0), i32 %49)
  %51 = add nuw nsw i64 %47, 1
  %52 = load i32, i32* %1, align 4, !tbaa !5
  %53 = sext i32 %52 to i64
  %54 = icmp slt i64 %51, %53
  br i1 %54, label %46, label %55, !llvm.loop !12

55:                                               ; preds = %46, %41
  %56 = phi i32 [ %44, %41 ], [ %52, %46 ]
  %57 = sext i32 %56 to i64
  %58 = getelementptr inbounds i32, i32* %43, i64 %57
  %59 = load i32, i32* %58, align 4, !tbaa !5
  %60 = call i32 (i8*, ...) @printf(i8* nonnull dereferenceable(1) getelementptr inbounds ([3 x i8], [3 x i8]* @.str.1, i64 0, i64 0), i32 %59)
  call void @llvm.lifetime.end.p0i8(i64 4, i8* nonnull %4) #4
  call void @llvm.lifetime.end.p0i8(i64 4, i8* nonnull %3) #4
  ret void
}

; Function Attrs: argmemonly mustprogress nofree nosync nounwind willreturn
declare void @llvm.lifetime.start.p0i8(i64 immarg, i8* nocapture) #1

; Function Attrs: nofree nounwind
declare noundef i32 @__isoc99_scanf(i8* nocapture noundef readonly, ...) local_unnamed_addr #2

; Function Attrs: mustprogress nofree nounwind willreturn
declare noalias noundef align 16 i8* @calloc(i64 noundef, i64 noundef) local_unnamed_addr #3

; Function Attrs: nofree nounwind
declare noundef i32 @printf(i8* nocapture noundef readonly, ...) local_unnamed_addr #2

; Function Attrs: argmemonly mustprogress nofree nosync nounwind willreturn
declare void @llvm.lifetime.end.p0i8(i64 immarg, i8* nocapture) #1


!llvm.module.flags = !{!0, !1, !2, !3}
!llvm.ident = !{!4}

!0 = !{i32 1, !"wchar_size", i32 4}
!1 = !{i32 7, !"PIC Level", i32 2}
!2 = !{i32 7, !"PIE Level", i32 2}
!3 = !{i32 7, !"uwtable", i32 1}
!4 = !{!"clang version 13.0.0"}
!5 = !{!6, !6, i64 0}
!6 = !{!"int", !7, i64 0}
!7 = !{!"omnipotent char", !8, i64 0}
!8 = !{!"Simple C/C++ TBAA"}
!9 = distinct !{!9, !10}
!10 = !{!"llvm.loop.mustprogress"}
!11 = distinct !{!11, !10}
!12 = distinct !{!12, !10}
